target datalayout = "e-m:e-p270:32:32-p271:32:32-p272:64:64-i64:64-i128:128-f80:128-n8:16:32:64-S128"
target triple = "x86_64-pc-linux-gnu"

%struct.Curl_cfilter = type { ptr, ptr, ptr, ptr, i32, i8 }
%struct.Curl_cftype = type { ptr, i32, i32, ptr, ptr, ptr, ptr, ptr, ptr, ptr, ptr, ptr, ptr, ptr, ptr, ptr }
%struct.connectdata = type { %struct.Curl_llist_node, ptr, ptr, i64, ptr, i64, ptr, ptr, %struct.hostname, ptr, ptr, %struct.hostname, %struct.proxy_info, %struct.proxy_info, %struct.ip_quadruple, %struct.ip_quadruple, ptr, ptr, ptr, ptr, ptr, %struct.curltime, %struct.curltime, %struct.curltime, [2 x i32], [2 x ptr], [2 x ptr], [2 x ptr], %struct.anon, %struct.easy_pollset, %struct.ssl_primary_config, %struct.ssl_primary_config, %struct.ConnectBits, ptr, ptr, %struct.curltime, i32, i32, %struct.Curl_llist, i32, i32, %struct.ntlmdata, %struct.ntlmdata, %union.anon, ptr, i16, i32, i32, i32, i32, i16, i16, i8, i8, i8, i8, i8, i8, i8 }
%struct.Curl_llist_node = type { ptr, ptr, ptr, ptr }
%struct.hostname = type { ptr, ptr, ptr, ptr }
%struct.proxy_info = type { %struct.hostname, i32, i8, ptr, ptr }
%struct.ip_quadruple = type { [46 x i8], [46 x i8], i32, i32 }
%struct.anon = type { [2 x %struct.curltime], i32 }
%struct.easy_pollset = type { [5 x i32], i32, [5 x i8] }
%struct.ssl_primary_config = type { ptr, ptr, ptr, ptr, ptr, ptr, ptr, ptr, ptr, ptr, ptr, ptr, i8, i32, i8, i8 }
%struct.ConnectBits = type { i64 }
%struct.curltime = type { i64, i32 }
%struct.Curl_llist = type { ptr, ptr, ptr, i64 }
%struct.ntlmdata = type { i32, [8 x i8], i32, ptr }
%union.anon = type { %struct.ftp_conn }
%struct.ftp_conn = type { %struct.pingpong, ptr, ptr, ptr, ptr, ptr, ptr, ptr, i8, i64, ptr, i64, i32, i32, i32, i32, i32, i16, i8, i8, i8, i8, i8 }
%struct.pingpong = type { i64, i8, ptr, i64, i64, %struct.curltime, i64, %struct.dynbuf, %struct.dynbuf, i64, i64, ptr, ptr }
%struct.dynbuf = type { ptr, i64, i64, i64 }

; Function Attrs: nounwind uwtable
define dso_local i32 @Curl_conn_cf_cntrl(ptr noundef %0, ptr noundef %1, i1 noundef zeroext %2, i32 noundef %3, i32 noundef %4, ptr noundef %5) #0 {
  %7 = alloca ptr, align 8
  %8 = alloca ptr, align 8
  %9 = alloca i8, align 1
  %10 = alloca i32, align 4
  %11 = alloca i32, align 4
  %12 = alloca ptr, align 8
  %13 = alloca i32, align 4
  store ptr %0, ptr %7, align 8, !tbaa !4
  store ptr %1, ptr %8, align 8, !tbaa !9
  %14 = zext i1 %2 to i8
  store i8 %14, ptr %9, align 1, !tbaa !13
  store i32 %3, ptr %10, align 4, !tbaa !53
  store i32 %4, ptr %11, align 4, !tbaa !53
  store ptr %5, ptr %12, align 8, !tbaa !57
  call void @llvm.lifetime.start.p0(i64 4, ptr %13) #5
  store i32 0, ptr %13, align 4, !tbaa !53
  br label %15

15:                                               ; preds = %45, %6
  %16 = load ptr, ptr %7, align 8, !tbaa !4
  %17 = icmp ne ptr %16, null
  br i1 %17, label %18, label %49

18:                                               ; preds = %15
  %19 = load ptr, ptr %7, align 8, !tbaa !4
  %20 = getelementptr inbounds nuw %struct.Curl_cfilter, ptr %19, i32 0, i32 0
  %21 = load ptr, ptr %20, align 8, !tbaa !24
  %22 = getelementptr inbounds nuw %struct.Curl_cftype, ptr %21, i32 0, i32 12
  %23 = load ptr, ptr %22, align 8, !tbaa !163
  %24 = icmp eq ptr @Curl_cf_def_cntrl, %23
  br i1 %24, label %25, label %26

25:                                               ; preds = %18
  br label %45

26:                                               ; preds = %18
  %27 = load ptr, ptr %7, align 8, !tbaa !4
  %28 = getelementptr inbounds nuw %struct.Curl_cfilter, ptr %27, i32 0, i32 0
  %29 = load ptr, ptr %28, align 8, !tbaa !24
  %30 = getelementptr inbounds nuw %struct.Curl_cftype, ptr %29, i32 0, i32 12
  %31 = load ptr, ptr %30, align 8, !tbaa !163
  %32 = load ptr, ptr %7, align 8, !tbaa !4
  %33 = load ptr, ptr %8, align 8, !tbaa !9
  %34 = load i32, ptr %10, align 4, !tbaa !53
  %35 = load i32, ptr %11, align 4, !tbaa !53
  %36 = load ptr, ptr %12, align 8, !tbaa !57
  %37 = call i32 %31(ptr noundef %32, ptr noundef %33, i32 noundef %34, i32 noundef %35, ptr noundef %36)
  store i32 %37, ptr %13, align 4, !tbaa !53
  %38 = load i8, ptr %9, align 1, !tbaa !13, !range !60, !noundef !61
  %39 = trunc i8 %38 to i1
  br i1 %39, label %44, label %40

40:                                               ; preds = %26
  %41 = load i32, ptr %13, align 4, !tbaa !53
  %42 = icmp ne i32 %41, 0
  br i1 %42, label %43, label %44

43:                                               ; preds = %40
  br label %49

44:                                               ; preds = %40, %26
  br label %45

45:                                               ; preds = %44, %25
  %46 = load ptr, ptr %7, align 8, !tbaa !4
  %47 = getelementptr inbounds nuw %struct.Curl_cfilter, ptr %46, i32 0, i32 1
  %48 = load ptr, ptr %47, align 8, !tbaa !19
  store ptr %48, ptr %7, align 8, !tbaa !4
  br label %15, !llvm.loop !164

49:                                               ; preds = %43, %15
  %50 = load i32, ptr %13, align 4, !tbaa !53
  call void @llvm.lifetime.end.p0(i64 4, ptr %13) #5
  ret i32 %50
}

; Function Attrs: nounwind uwtable
define internal i32 @cf_cntrl_all(ptr noundef %0, ptr noundef %1, i1 noundef zeroext %2, i32 noundef %3, i32 noundef %4, ptr noundef %5) #0 {
  %7 = alloca ptr, align 8
  %8 = alloca ptr, align 8
  %9 = alloca i8, align 1
  %10 = alloca i32, align 4
  %11 = alloca i32, align 4
  %12 = alloca ptr, align 8
  %13 = alloca i32, align 4
  %14 = alloca i64, align 8
  store ptr %0, ptr %7, align 8, !tbaa !71
  store ptr %1, ptr %8, align 8, !tbaa !9
  %15 = zext i1 %2 to i8
  store i8 %15, ptr %9, align 1, !tbaa !13
  store i32 %3, ptr %10, align 4, !tbaa !53
  store i32 %4, ptr %11, align 4, !tbaa !53
  store ptr %5, ptr %12, align 8, !tbaa !57
  call void @llvm.lifetime.start.p0(i64 4, ptr %13) #5
  store i32 0, ptr %13, align 4, !tbaa !53
  call void @llvm.lifetime.start.p0(i64 8, ptr %14) #5
  store i64 0, ptr %14, align 8, !tbaa !58
  br label %16

16:                                               ; preds = %39, %6
  %17 = load i64, ptr %14, align 8, !tbaa !58
  %18 = icmp ult i64 %17, 2
  br i1 %18, label %19, label %42

19:                                               ; preds = %16
  %20 = load ptr, ptr %7, align 8, !tbaa !71
  %21 = getelementptr inbounds nuw %struct.connectdata, ptr %20, i32 0, i32 27
  %22 = load i64, ptr %14, align 8, !tbaa !58
  %23 = getelementptr inbounds nuw [2 x ptr], ptr %21, i64 0, i64 %22
  %24 = load ptr, ptr %23, align 8, !tbaa !4
  %25 = load ptr, ptr %8, align 8, !tbaa !9
  %26 = load i8, ptr %9, align 1, !tbaa !13, !range !60, !noundef !61
  %27 = trunc i8 %26 to i1
  %28 = load i32, ptr %10, align 4, !tbaa !53
  %29 = load i32, ptr %11, align 4, !tbaa !53
  %30 = load ptr, ptr %12, align 8, !tbaa !57
  %31 = call i32 @Curl_conn_cf_cntrl(ptr noundef %24, ptr noundef %25, i1 noundef zeroext %27, i32 noundef %28, i32 noundef %29, ptr noundef %30)
  store i32 %31, ptr %13, align 4, !tbaa !53
  %32 = load i8, ptr %9, align 1, !tbaa !13, !range !60, !noundef !61
  %33 = trunc i8 %32 to i1
  br i1 %33, label %38, label %34

34:                                               ; preds = %19
  %35 = load i32, ptr %13, align 4, !tbaa !53
  %36 = icmp ne i32 %35, 0
  br i1 %36, label %37, label %38

37:                                               ; preds = %34
  br label %42

38:                                               ; preds = %34, %19
  br label %39

39:                                               ; preds = %38
  %40 = load i64, ptr %14, align 8, !tbaa !58
  %41 = add i64 %40, 1
  store i64 %41, ptr %14, align 8, !tbaa !58
  br label %16, !llvm.loop !167

42:                                               ; preds = %37, %16
  %43 = load i32, ptr %13, align 4, !tbaa !53
  call void @llvm.lifetime.end.p0(i64 8, ptr %14) #5
  call void @llvm.lifetime.end.p0(i64 4, ptr %13) #5
  ret i32 %43
}

; Function Attrs: nounwind uwtable
define dso_local void @Curl_conn_ev_data_detach(ptr noundef %0, ptr noundef %1) #0 {
  %3 = alloca ptr, align 8
  %4 = alloca ptr, align 8
  store ptr %0, ptr %3, align 8, !tbaa !71
  store ptr %1, ptr %4, align 8, !tbaa !9
  %5 = load ptr, ptr %3, align 8, !tbaa !71
  %6 = load ptr, ptr %4, align 8, !tbaa !9
  %7 = call i32 @cf_cntrl_all(ptr noundef %5, ptr noundef %6, i1 noundef zeroext true, i32 noundef 2, i32 noundef 0, ptr noundef null)
  ret void
}