; Function Attrs: nounwind uwtable
define dso_local void @Curl_conn_ev_data_detach(ptr noundef readonly captures(none) %0, ptr noundef %1) local_unnamed_addr #1 {
  %3 = getelementptr inbounds nuw i8, ptr %0, i64 608
  br label %.split.us.i

.split.us.i:                                      ; preds = %Curl_conn_cf_cntrl.exit.thread.us.i, %2
  %4 = phi i1 [ false, %Curl_conn_cf_cntrl.exit.thread.us.i ], [ true, %2 ]
  %.05.us.i = phi i64 [ 1, %Curl_conn_cf_cntrl.exit.thread.us.i ], [ 0, %2 ]
  %5 = getelementptr inbounds nuw [2 x ptr], ptr %3, i64 0, i64 %.05.us.i
  %6 = load ptr, ptr %5, align 8, !tbaa !51
  %.not1517.i.us.i = icmp eq ptr %6, null
  br i1 %.not1517.i.us.i, label %Curl_conn_cf_cntrl.exit.thread.us.i, label %.lr.ph.split.us.i.us.i

.lr.ph.split.us.i.us.i:                           ; preds = %.split.us.i, %13
  %.01218.us.i.us.i = phi ptr [ %15, %13 ], [ %6, %.split.us.i ]
  %7 = load ptr, ptr %.01218.us.i.us.i, align 8, !tbaa !15
  %8 = getelementptr inbounds nuw i8, ptr %7, i64 88
  %9 = load ptr, ptr %8, align 8, !tbaa !129
  %10 = icmp eq ptr %9, @Curl_cf_def_cntrl
  br i1 %10, label %13, label %11

11:                                               ; preds = %.lr.ph.split.us.i.us.i
  %12 = tail call i32 %9(ptr noundef nonnull %.01218.us.i.us.i, ptr noundef %1, i32 noundef 2, i32 noundef 0, ptr noundef null) #12
  br label %13

13:                                               ; preds = %11, %.lr.ph.split.us.i.us.i
  %14 = getelementptr inbounds nuw i8, ptr %.01218.us.i.us.i, i64 8
  %15 = load ptr, ptr %14, align 8, !tbaa !8
  %.not15.us.i.us.i = icmp eq ptr %15, null
  br i1 %.not15.us.i.us.i, label %Curl_conn_cf_cntrl.exit.thread.us.i, label %.lr.ph.split.us.i.us.i, !llvm.loop !130

Curl_conn_cf_cntrl.exit.thread.us.i:              ; preds = %13, %.split.us.i
  br i1 %4, label %.split.us.i, label %cf_cntrl_all.exit, !llvm.loop !131

cf_cntrl_all.exit:                                ; preds = %Curl_conn_cf_cntrl.exit.thread.us.i
  ret void
}